target datalayout = "e-m:e-p270:32:32-p271:32:32-p272:64:64-i64:64-i128:128-f80:128-n8:16:32:64-S128"
target triple = "x86_64-pc-linux-gnu"

; Function Attrs: nounwind uwtable
define dso_local i32 @FuzzerInitialize(ptr noundef %0, ptr noundef %1) #0 {
  %3 = alloca ptr, align 8
  %4 = alloca ptr, align 8
  store ptr %0, ptr %3, align 8, !tbaa !4
  store ptr %1, ptr %4, align 8, !tbaa !9
  ret i32 1
}

; Function Attrs: nounwind uwtable
define dso_local i32 @FuzzerTestOneInput(ptr noundef %0, i64 noundef %1) #0 {
  %3 = alloca ptr, align 8
  %4 = alloca i64, align 8
  %5 = alloca ptr, align 8
  %6 = alloca ptr, align 8
  %7 = alloca ptr, align 8
  store ptr %0, ptr %3, align 8, !tbaa !11
  store i64 %1, ptr %4, align 8, !tbaa !13
  call void @llvm.lifetime.start.p0(i64 8, ptr %5) #3
  call void @llvm.lifetime.start.p0(i64 8, ptr %6) #3
  call void @llvm.lifetime.start.p0(i64 8, ptr %7) #3
  %8 = load ptr, ptr %3, align 8, !tbaa !11
  store ptr %8, ptr %7, align 8, !tbaa !11
  %9 = load i64, ptr %4, align 8, !tbaa !13
  %10 = call ptr @d2i_GENERAL_NAME(ptr noundef null, ptr noundef %7, i64 noundef %9)
  store ptr %10, ptr %5, align 8, !tbaa !15
  %11 = load ptr, ptr %3, align 8, !tbaa !11
  store ptr %11, ptr %7, align 8, !tbaa !11
  %12 = load i64, ptr %4, align 8, !tbaa !13
  %13 = call ptr @d2i_GENERAL_NAME(ptr noundef null, ptr noundef %7, i64 noundef %12)
  store ptr %13, ptr %6, align 8, !tbaa !15
  %14 = load ptr, ptr %5, align 8, !tbaa !15
  %15 = load ptr, ptr %6, align 8, !tbaa !15
  %16 = call i32 @GENERAL_NAME_cmp(ptr noundef %14, ptr noundef %15)
  %17 = load ptr, ptr %5, align 8, !tbaa !15
  %18 = icmp ne ptr %17, null
  br i1 %18, label %19, label %21

19:                                               ; preds = %2
  %20 = load ptr, ptr %5, align 8, !tbaa !15
  call void @GENERAL_NAME_free(ptr noundef %20)
  br label %21

21:                                               ; preds = %19, %2
  %22 = load ptr, ptr %6, align 8, !tbaa !15
  %23 = icmp ne ptr %22, null
  br i1 %23, label %24, label %26

24:                                               ; preds = %21
  %25 = load ptr, ptr %6, align 8, !tbaa !15
  call void @GENERAL_NAME_free(ptr noundef %25)
  br label %26

26:                                               ; preds = %24, %21
  call void @llvm.lifetime.end.p0(i64 8, ptr %7) #3
  call void @llvm.lifetime.end.p0(i64 8, ptr %6) #3
  call void @llvm.lifetime.end.p0(i64 8, ptr %5) #3
  ret i32 0
}

; Function Attrs: nocallback nofree nosync nounwind willreturn memory(argmem: readwrite)
declare void @llvm.lifetime.start.p0(i64 immarg, ptr captures(none)) #1

declare ptr @d2i_GENERAL_NAME(ptr noundef, ptr noundef, i64 noundef) #2

declare i32 @GENERAL_NAME_cmp(ptr noundef, ptr noundef) #2

declare void @GENERAL_NAME_free(ptr noundef) #2

; Function Attrs: nocallback nofree nosync nounwind willreturn memory(argmem: readwrite)
declare void @llvm.lifetime.end.p0(i64 immarg, ptr captures(none)) #1

; Function Attrs: nounwind uwtable
define dso_local void @FuzzerCleanup() #0 {
  ret void
}


!llvm.module.flags = !{!0, !1, !2, !3}

!0 = !{i32 1, !"wchar_size", i32 4}
!1 = !{i32 8, !"PIC Level", i32 2}
!2 = !{i32 7, !"PIE Level", i32 2}
!3 = !{i32 7, !"uwtable", i32 2}
!4 = !{!5, !5, i64 0}
!5 = !{!"p1 int", !6, i64 0}
!6 = !{!"any pointer", !7, i64 0}
!7 = !{!"omnipotent char", !8, i64 0}
!8 = !{!"Simple C/C++ TBAA"}
!9 = !{!10, !10, i64 0}
!10 = !{!"p3 omnipotent char", !6, i64 0}
!11 = !{!12, !12, i64 0}
!12 = !{!"p1 omnipotent char", !6, i64 0}
!13 = !{!14, !14, i64 0}
!14 = !{!"long", !7, i64 0}
!15 = !{!16, !16, i64 0}
!16 = !{!"p1 _ZTS15GENERAL_NAME_st", !6, i64 0}
